; Function Attrs: nounwind uwtable
define hidden signext i8 @nfaExecTamarama_expandState(ptr noundef %0, ptr noundef %1, ptr noundef %2, i64 noundef %3, i8 noundef zeroext %4) local_unnamed_addr #0 {
  %6 = getelementptr inbounds nuw i8, ptr %0, i64 64
  %7 = getelementptr inbounds nuw i8, ptr %0, i64 68
  %8 = load i8, ptr %7, align 4
  switch i8 %8, label %loadActiveIdx.exit [
    i8 4, label %9
    i8 3, label %11
    i8 2, label %19
    i8 1, label %22
  ]

9:                                                ; preds = %5
  %10 = load i32, ptr %2, align 1
  br label %loadActiveIdx.exit

11:                                               ; preds = %5
  %12 = load i16, ptr %2, align 1
  %13 = zext i16 %12 to i32
  %14 = getelementptr inbounds nuw i8, ptr %2, i64 2
  %15 = load i8, ptr %14, align 1
  %16 = zext i8 %15 to i32
  %17 = shl nuw nsw i32 %16, 16
  %18 = or disjoint i32 %17, %13
  br label %loadActiveIdx.exit

19:                                               ; preds = %5
  %20 = load i16, ptr %2, align 1
  %21 = zext i16 %20 to i32
  br label %loadActiveIdx.exit

22:                                               ; preds = %5
  %23 = load i8, ptr %2, align 1
  %24 = zext i8 %23 to i32
  br label %loadActiveIdx.exit

loadActiveIdx.exit:                               ; preds = %5, %9, %11, %19, %22
  %.0.i.i = phi i32 [ %24, %22 ], [ %21, %19 ], [ %18, %11 ], [ %10, %9 ], [ 0, %5 ]
  %25 = load i32, ptr %6, align 32
  %26 = icmp eq i32 %.0.i.i, %25
  br i1 %26, label %40, label %27

27:                                               ; preds = %loadActiveIdx.exit
  %28 = getelementptr inbounds nuw i8, ptr %0, i64 96
  %29 = zext i32 %25 to i64
  %30 = shl nuw nsw i64 %29, 2
  %31 = getelementptr inbounds nuw i8, ptr %28, i64 %30
  %32 = zext i32 %.0.i.i to i64
  %33 = getelementptr inbounds nuw i32, ptr %31, i64 %32
  %34 = load i32, ptr %33, align 4
  %35 = zext i32 %34 to i64
  %36 = getelementptr inbounds nuw i8, ptr %6, i64 %35
  %37 = zext i8 %8 to i64
  %38 = getelementptr inbounds nuw i8, ptr %2, i64 %37
  %39 = tail call signext i8 @nfaExpandState(ptr noundef nonnull %36, ptr noundef %1, ptr noundef %38, i64 noundef %3, i8 noundef zeroext %4) #7
  br label %40

40:                                               ; preds = %loadActiveIdx.exit, %27
  %.0 = phi i8 [ %39, %27 ], [ 0, %loadActiveIdx.exit ]
  ret i8 %.0
}